; Function Attrs: mustprogress nofree norecurse nosync nounwind willreturn memory(argmem: read) uwtable
define i64 @ossl_statem_server_max_message_size(ptr noundef readonly captures(none) %0) local_unnamed_addr #7 {
  %2 = getelementptr inbounds nuw i8, ptr %0, i64 172
  %3 = load i32, ptr %2, align 4, !tbaa !75
  switch i32 %3, label %13 [
    i32 22, label %4
    i32 48, label %11
    i32 31, label %5
    i32 30, label %5
    i32 32, label %8
    i32 33, label %9
    i32 34, label %10
    i32 35, label %11
    i32 36, label %12
  ]

4:                                                ; preds = %1
  br label %13

5:                                                ; preds = %1, %1
  %6 = getelementptr inbounds nuw i8, ptr %0, i64 2504
  %7 = load i64, ptr %6, align 8, !tbaa !213
  br label %13

8:                                                ; preds = %1
  br label %13

9:                                                ; preds = %1
  br label %13

10:                                               ; preds = %1
  br label %13

11:                                               ; preds = %1, %1
  br label %13

12:                                               ; preds = %1
  br label %13

13:                                               ; preds = %1, %12, %11, %10, %9, %8, %5, %4
  %.0 = phi i64 [ 64, %12 ], [ 1, %11 ], [ 514, %10 ], [ 65539, %9 ], [ 2048, %8 ], [ %7, %5 ], [ 131396, %4 ], [ 0, %1 ]
  ret i64 %.0
}